target datalayout = "e-m:e-p270:32:32-p271:32:32-p272:64:64-i64:64-i128:128-f80:128-n8:16:32:64-S128"
target triple = "x86_64-pc-linux-gnu"

%struct.PROV_KDF_CTX = type { ptr, ptr, ptr }

@.str.1 = private unnamed_addr constant [57 x i8] c"../openssl/providers/implementations/exchange/kdf_exch.c\00", align 1

; Function Attrs: nounwind uwtable
define internal ptr @kdf_newctx(ptr noundef %0, ptr noundef %1) #0 {
  %3 = alloca ptr, align 8
  %4 = alloca ptr, align 8
  %5 = alloca ptr, align 8
  %6 = alloca ptr, align 8
  %7 = alloca ptr, align 8
  %8 = alloca i32, align 4
  store ptr %0, ptr %4, align 8, !tbaa !13
  store ptr %1, ptr %5, align 8, !tbaa !3
  call void @llvm.lifetime.start.p0(i64 8, ptr %6) #4
  call void @llvm.lifetime.start.p0(i64 8, ptr %7) #4
  store ptr null, ptr %7, align 8, !tbaa !25
  %9 = call i32 @ossl_prov_is_running()
  %10 = icmp ne i32 %9, 0
  br i1 %10, label %12, label %11

11:                                               ; preds = %2
  store ptr null, ptr %3, align 8
  store i32 1, ptr %8, align 4
  br label %43

12:                                               ; preds = %2
  %13 = call noalias ptr @CRYPTO_zalloc(i64 noundef 24, ptr noundef @.str.1, i32 noundef 53)
  store ptr %13, ptr %6, align 8, !tbaa !3
  %14 = load ptr, ptr %6, align 8, !tbaa !3
  %15 = icmp eq ptr %14, null
  br i1 %15, label %16, label %17

16:                                               ; preds = %12
  store ptr null, ptr %3, align 8
  store i32 1, ptr %8, align 4
  br label %43

17:                                               ; preds = %12
  %18 = load ptr, ptr %5, align 8, !tbaa !3
  %19 = load ptr, ptr %6, align 8, !tbaa !3
  %20 = getelementptr inbounds nuw %struct.PROV_KDF_CTX, ptr %19, i32 0, i32 0
  store ptr %18, ptr %20, align 8, !tbaa !27
  %21 = load ptr, ptr %5, align 8, !tbaa !3
  %22 = call ptr @ossl_prov_ctx_get0_libctx(ptr noundef %21)
  %23 = load ptr, ptr %4, align 8, !tbaa !13
  %24 = call ptr @EVP_KDF_fetch(ptr noundef %22, ptr noundef %23, ptr noundef null)
  store ptr %24, ptr %7, align 8, !tbaa !25
  %25 = load ptr, ptr %7, align 8, !tbaa !25
  %26 = icmp eq ptr %25, null
  br i1 %26, label %27, label %28

27:                                               ; preds = %17
  br label %41

28:                                               ; preds = %17
  %29 = load ptr, ptr %7, align 8, !tbaa !25
  %30 = call ptr @EVP_KDF_CTX_new(ptr noundef %29)
  %31 = load ptr, ptr %6, align 8, !tbaa !3
  %32 = getelementptr inbounds nuw %struct.PROV_KDF_CTX, ptr %31, i32 0, i32 1
  store ptr %30, ptr %32, align 8, !tbaa !19
  %33 = load ptr, ptr %7, align 8, !tbaa !25
  call void @EVP_KDF_free(ptr noundef %33)
  %34 = load ptr, ptr %6, align 8, !tbaa !3
  %35 = getelementptr inbounds nuw %struct.PROV_KDF_CTX, ptr %34, i32 0, i32 1
  %36 = load ptr, ptr %35, align 8, !tbaa !19
  %37 = icmp eq ptr %36, null
  br i1 %37, label %38, label %39

38:                                               ; preds = %28
  br label %41

39:                                               ; preds = %28
  %40 = load ptr, ptr %6, align 8, !tbaa !3
  store ptr %40, ptr %3, align 8
  store i32 1, ptr %8, align 4
  br label %43

41:                                               ; preds = %38, %27
  %42 = load ptr, ptr %6, align 8, !tbaa !3
  call void @CRYPTO_free(ptr noundef %42, ptr noundef @.str.1, i32 noundef 70)
  store ptr null, ptr %3, align 8
  store i32 1, ptr %8, align 4
  br label %43

43:                                               ; preds = %41, %39, %16, %11
  call void @llvm.lifetime.end.p0(i64 8, ptr %7) #4
  call void @llvm.lifetime.end.p0(i64 8, ptr %6) #4
  %44 = load ptr, ptr %3, align 8
  ret ptr %44
}