; Function Attrs: nounwind uwtable
define internal fastcc ptr @kdf_newctx(ptr noundef %0, ptr noundef %1) unnamed_addr #0 {
  %3 = tail call i32 @ossl_prov_is_running() #3
  %.not = icmp eq i32 %3, 0
  br i1 %.not, label %16, label %4

4:                                                ; preds = %2
  %5 = tail call noalias ptr @CRYPTO_zalloc(i64 noundef 24, ptr noundef nonnull @.str.1, i32 noundef 53) #3
  %6 = icmp eq ptr %5, null
  br i1 %6, label %16, label %7

7:                                                ; preds = %4
  store ptr %1, ptr %5, align 8, !tbaa !17
  %8 = tail call ptr @ossl_prov_ctx_get0_libctx(ptr noundef %1) #3
  %9 = tail call ptr @EVP_KDF_fetch(ptr noundef %8, ptr noundef %0, ptr noundef null) #3
  %10 = icmp eq ptr %9, null
  br i1 %10, label %15, label %11

11:                                               ; preds = %7
  %12 = tail call ptr @EVP_KDF_CTX_new(ptr noundef nonnull %9) #3
  %13 = getelementptr inbounds nuw i8, ptr %5, i64 8
  store ptr %12, ptr %13, align 8, !tbaa !10
  tail call void @EVP_KDF_free(ptr noundef nonnull %9) #3
  %14 = icmp eq ptr %12, null
  br i1 %14, label %15, label %16

15:                                               ; preds = %11, %7
  tail call void @CRYPTO_free(ptr noundef nonnull %5, ptr noundef nonnull @.str.1, i32 noundef 70) #3
  br label %16

16:                                               ; preds = %11, %4, %2, %15
  %.0 = phi ptr [ null, %15 ], [ null, %2 ], [ null, %4 ], [ %5, %11 ]
  ret ptr %.0
}